(dp1
S'output'
p2
S'<class \'pyodbc.DataError\'> (\'22018\', "[22018] [Microsoft][ODBC SQL Server Driver][SQL Server]Conversion failed when converting the varchar value \'a\' to data type tinyint. (245) (SQLExecDirectW)")'
p3
sS'layer'
p4
S'E:\\users\\gitlab\\dev\\jclin\\web2py\\web2pyWin_Test\\applications\\ApplicationConfig\\controllers/record.py'
p5
sS'code'
p6
S'<code object <module> at 0AE0DA88, file "E:\\users\\gitlab\\dev\\jclin\\web2py\\web2pyWin_Test\\applications\\ApplicationConfig\\controllers/record.py", line 2>'
p7
sS'snapshot'
p8
(dp9
S'exception'
p10
(dp11
S'__module__'
p12
S"'pyodbc'"
p13
sS'__getslice__'
p14
S"<method-wrapper '__getslice__' of DataError object>"
p15
sS'__str__'
p16
S"<method-wrapper '__str__' of DataError object>"
p17
sS'__reduce__'
p18
S'<built-in method __reduce__ of DataError object>'
p19
sS'__dict__'
p20
S'{}'
p21
sS'__sizeof__'
p22
S'<built-in method __sizeof__ of DataError object>'
p23
sS'__weakref__'
p24
S'None'
p25
sS'message'
p26
S"''"
p27
sS'__init__'
p28
S"<method-wrapper '__init__' of DataError object>"
p29
sS'__setattr__'
p30
S"<method-wrapper '__setattr__' of DataError object>"
p31
sS'__reduce_ex__'
p32
S'<built-in method __reduce_ex__ of DataError object>'
p33
sS'__new__'
p34
S'<built-in method __new__ of type object>'
p35
sS'__format__'
p36
S'<built-in method __format__ of DataError object>'
p37
sS'__class__'
p38
S"<class 'pyodbc.DataError'>"
p39
sS'__doc__'
p40
S"'Exception raised for errors that are due to prob...ivision by zero, numeric value out of range, etc.'"
p41
sS'__getitem__'
p42
S"<method-wrapper '__getitem__' of DataError object>"
p43
sS'__setstate__'
p44
S'<built-in method __setstate__ of DataError object>'
p45
sS'__getattribute__'
p46
S"<method-wrapper '__getattribute__' of DataError object>"
p47
sS'args'
p48
S'(\'22018\', "[22018] [Microsoft][ODBC SQL Server Driver][SQL ... \'a\' to data type tinyint. (245) (SQLExecDirectW)")'
p49
sS'__subclasshook__'
p50
S'<built-in method __subclasshook__ of type object>'
p51
sS'__unicode__'
p52
S'<built-in method __unicode__ of DataError object>'
p53
sS'__delattr__'
p54
S"<method-wrapper '__delattr__' of DataError object>"
p55
sS'__repr__'
p56
S"<method-wrapper '__repr__' of DataError object>"
p57
sS'__hash__'
p58
S"<method-wrapper '__hash__' of DataError object>"
p59
ssS'evalue'
p60
S'(\'22018\', "[22018] [Microsoft][ODBC SQL Server Driver][SQL Server]Conversion failed when converting the varchar value \'a\' to data type tinyint. (245) (SQLExecDirectW)")'
p61
sS'request'
p62
cgluon.html
XML_unpickle
p63
(S'syl\x00\x00<div><table><tr><td style="font-weight:bold;vertical-align:top;">ajax</td><td style="vertical-align:top;">:</td><td><div>True</div></td></tr><tr><td style="font-weight:bold;vertical-align:top;">application</td><td style="vertical-align:top;">:</td><td><div>ApplicationConfig</div></td></tr><tr><td style="font-weight:bold;vertical-align:top;">args</td><td style="vertical-align:top;">:</td><td><div><table></table></div></td></tr><tr><td style="font-weight:bold;vertical-align:top;">cid</td><td style="vertical-align:top;">:</td><td><div>None</div></td></tr><tr><td style="font-weight:bold;vertical-align:top;">client</td><td style="vertical-align:top;">:</td><td><div>10.5.2.38</div></td></tr><tr><td style="font-weight:bold;vertical-align:top;">controller</td><td style="vertical-align:top;">:</td><td><div>record</div></td></tr><tr><td style="font-weight:bold;vertical-align:top;">cookies</td><td style="vertical-align:top;">:</td><td><div><table><tr><td style="font-weight:bold;vertical-align:top;">session_id_admin</td><td style="vertical-align:top;">:</td><td><div>10.5.2.38-130d7774-8bb0-4417-84f1-8df00fe257fd<table><tr><td style="font-weight:bold;vertical-align:top;">comment</td><td style="vertical-align:top;">:</td><td><div></div></td></tr><tr><td style="font-weight:bold;vertical-align:top;">domain</td><td style="vertical-align:top;">:</td><td><div></div></td></tr><tr><td style="font-weight:bold;vertical-align:top;">expires</td><td style="vertical-align:top;">:</td><td><div></div></td></tr><tr><td style="font-weight:bold;vertical-align:top;">httponly</td><td style="vertical-align:top;">:</td><td><div></div></td></tr><tr><td style="font-weight:bold;vertical-align:top;">max-age</td><td style="vertical-align:top;">:</td><td><div></div></td></tr><tr><td style="font-weight:bold;vertical-align:top;">path</td><td style="vertical-align:top;">:</td><td><div></div></td></tr><tr><td style="font-weight:bold;vertical-align:top;">samesite</td><td style="vertical-align:top;">:</td><td><div></div></td></tr><tr><td style="font-weight:bold;vertical-align:top;">secure</td><td style="vertical-align:top;">:</td><td><div></div></td></tr><tr><td style="font-weight:bold;vertical-align:top;">version</td><td style="vertical-align:top;">:</td><td><div></div></td></tr></table></div></td></tr><tr><td style="font-weight:bold;vertical-align:top;">session_id_applicationconfig</td><td style="vertical-align:top;">:</td><td><div>10.5.2.38-68cda301-75f7-4723-accc-36309a2adfe7<table><tr><td style="font-weight:bold;vertical-align:top;">comment</td><td style="vertical-align:top;">:</td><td><div></div></td></tr><tr><td style="font-weight:bold;vertical-align:top;">domain</td><td style="vertical-align:top;">:</td><td><div></div></td></tr><tr><td style="font-weight:bold;vertical-align:top;">expires</td><td style="vertical-align:top;">:</td><td><div></div></td></tr><tr><td style="font-weight:bold;vertical-align:top;">httponly</td><td style="vertical-align:top;">:</td><td><div></div></td></tr><tr><td style="font-weight:bold;vertical-align:top;">max-age</td><td style="vertical-align:top;">:</td><td><div></div></td></tr><tr><td style="font-weight:bold;vertical-align:top;">path</td><td style="vertical-align:top;">:</td><td><div></div></td></tr><tr><td style="font-weight:bold;vertical-align:top;">samesite</td><td style="vertical-align:top;">:</td><td><div></div></td></tr><tr><td style="font-weight:bold;vertical-align:top;">secure</td><td style="vertical-align:top;">:</td><td><div></div></td></tr><tr><td style="font-weight:bold;vertical-align:top;">version</td><td style="vertical-align:top;">:</td><td><div></div></td></tr></table></div></td></tr><tr><td style="font-weight:bold;vertical-align:top;">session_id_welcome</td><td style="vertical-align:top;">:</td><td><div>10.5.2.38-1d07e11e-ee95-4668-9309-d790f46c49e5<table><tr><td style="font-weight:bold;vertical-align:top;">comment</td><td style="vertical-align:top;">:</td><td><div></div></td></tr><tr><td style="font-weight:bold;vertical-align:top;">domain</td><td style="vertical-align:top;">:</td><td><div></div></td></tr><tr><td style="font-weight:bold;vertical-align:top;">expires</td><td style="vertical-align:top;">:</td><td><div></div></td></tr><tr><td style="font-weight:bold;vertical-align:top;">httponly</td><td style="vertical-align:top;">:</td><td><div></div></td></tr><tr><td style="font-weight:bold;vertical-align:top;">max-age</td><td style="vertical-align:top;">:</td><td><div></div></td></tr><tr><td style="font-weight:bold;vertical-align:top;">path</td><td style="vertical-align:top;">:</td><td><div></div></td></tr><tr><td style="font-weight:bold;vertical-align:top;">samesite</td><td style="vertical-align:top;">:</td><td><div></div></td></tr><tr><td style="font-weight:bold;vertical-align:top;">secure</td><td style="vertical-align:top;">:</td><td><div></div></td></tr><tr><td style="font-weight:bold;vertical-align:top;">version</td><td style="vertical-align:top;">:</td><td><div></div></td></tr></table></div></td></tr></table></div></td></tr><tr><td style="font-weight:bold;vertical-align:top;">env</td><td style="vertical-align:top;">:</td><td><div><table><tr><td style="font-weight:bold;vertical-align:top;">CONTENT_LENGTH</td><td style="vertical-align:top;">:</td><td><div>76</div></td></tr><tr><td style="font-weight:bold;vertical-align:top;">CONTENT_TYPE</td><td style="vertical-align:top;">:</td><td><div>application/x-www-form-urlencoded; charset=UTF-8</div></td></tr><tr><td style="font-weight:bold;vertical-align:top;">HTTP_ACCEPT</td><td style="vertical-align:top;">:</td><td><div>*/*</div></td></tr><tr><td style="font-weight:bold;vertical-align:top;">HTTP_ACCEPT_ENCODING</td><td style="vertical-align:top;">:</td><td><div>gzip, deflate</div></td></tr><tr><td style="font-weight:bold;vertical-align:top;">HTTP_ACCEPT_LANGUAGE</td><td style="vertical-align:top;">:</td><td><div>en-US,en;q=0.9</div></td></tr><tr><td style="font-weight:bold;vertical-align:top;">HTTP_CONNECTION</td><td style="vertical-align:top;">:</td><td><div>keep-alive</div></td></tr><tr><td style="font-weight:bold;vertical-align:top;">HTTP_CONTENT_LENGTH</td><td style="vertical-align:top;">:</td><td><div>76</div></td></tr><tr><td style="font-weight:bold;vertical-align:top;">HTTP_CONTENT_TYPE</td><td style="vertical-align:top;">:</td><td><div>application/x-www-form-urlencoded; charset=UTF-8</div></td></tr><tr><td style="font-weight:bold;vertical-align:top;">HTTP_COOKIE</td><td style="vertical-align:top;">:</td><td><div>session_id_admin=10.5.2.38-130d7774-8bb0-4417-84f1-8df00fe257fd; session_id_welcome=10.5.2.38-1d07e11e-ee95-4668-9309-d790f46c49e5; session_id_applicationconfig=10.5.2.38-68cda301-75f7-4723-accc-36309a2adfe7</div></td></tr><tr><td style="font-weight:bold;vertical-align:top;">HTTP_HOST</td><td style="vertical-align:top;">:</td><td><div>10.5.2.38:9999</div></td></tr><tr><td style="font-weight:bold;vertical-align:top;">HTTP_ORIGIN</td><td style="vertical-align:top;">:</td><td><div>http://10.5.2.38:9999</div></td></tr><tr><td style="font-weight:bold;vertical-align:top;">HTTP_REFERER</td><td style="vertical-align:top;">:</td><td><div>http://10.5.2.38:9999/ApplicationConfig/record/add?dbname=LoanTypeService&amp;tablename=tbcLoanType</div></td></tr><tr><td style="font-weight:bold;vertical-align:top;">HTTP_USER_AGENT</td><td style="vertical-align:top;">:</td><td><div>Mozilla/5.0 (Windows NT 10.0; Win64; x64) AppleWebKit/537.36 (KHTML, like Gecko) Chrome/72.0.3626.109 Safari/537.36</div></td></tr><tr><td style="font-weight:bold;vertical-align:top;">HTTP_X_REQUESTED_WITH</td><td style="vertical-align:top;">:</td><td><div>XMLHttpRequest</div></td></tr><tr><td style="font-weight:bold;vertical-align:top;">PATH_INFO</td><td style="vertical-align:top;">:</td><td><div>/ApplicationConfig/record/search.json</div></td></tr><tr><td style="font-weight:bold;vertical-align:top;">QUERY_STRING</td><td style="vertical-align:top;">:</td><td><div>dbname=LoanTypeService&amp;tablename=tbdCreditType</div></td></tr><tr><td style="font-weight:bold;vertical-align:top;">REMOTE_ADDR</td><td style="vertical-align:top;">:</td><td><div>10.5.2.38</div></td></tr><tr><td style="font-weight:bold;vertical-align:top;">REMOTE_PORT</td><td style="vertical-align:top;">:</td><td><div>53144</div></td></tr><tr><td style="font-weight:bold;vertical-align:top;">REQUEST_METHOD</td><td style="vertical-align:top;">:</td><td><div>POST</div></td></tr><tr><td style="font-weight:bold;vertical-align:top;">SCRIPT_NAME</td><td style="vertical-align:top;">:</td><td><div></div></td></tr><tr><td style="font-weight:bold;vertical-align:top;">SERVER_NAME</td><td style="vertical-align:top;">:</td><td><div>TIT-JCLIN</div></td></tr><tr><td style="font-weight:bold;vertical-align:top;">SERVER_PORT</td><td style="vertical-align:top;">:</td><td><div>9999</div></td></tr><tr><td style="font-weight:bold;vertical-align:top;">SERVER_PROTOCOL</td><td style="vertical-align:top;">:</td><td><div>HTTP/1.1</div></td></tr><tr><td style="font-weight:bold;vertical-align:top;">SERVER_SOFTWARE</td><td style="vertical-align:top;">:</td><td><div>Rocket 1.2.6</div></td></tr><tr><td style="font-weight:bold;vertical-align:top;">app_folders</td><td style="vertical-align:top;">:</td><td><div>set([&#x27;E:\\\\users\\\\gitlab\\\\dev\\\\jclin\\\\web2py\\\\web2pyWin_Test\\\\applications\\\\welcome\\\\&#x27;, &#x27;E:\\\\users\\\\gitlab\\\\dev\\\\jclin\\\\web2py\\\\web2pyWin_Test\\\\applications\\\\ApplicationConfig\\\\&#x27;, &#x27;E:\\\\users\\\\gitlab\\\\dev\\\\jclin\\\\web2py\\\\web2pyWin_Test\\\\applications\\\\admin\\\\&#x27;])</div></td></tr><tr><td style="font-weight:bold;vertical-align:top;">applications_parent</td><td style="vertical-align:top;">:</td><td><div>E:\\users\\gitlab\\dev\\jclin\\web2py\\web2pyWin_Test</div></td></tr><tr><td style="font-weight:bold;vertical-align:top;">cmd_args</td><td style="vertical-align:top;">:</td><td><div><table></table></div></td></tr><tr><td style="font-weight:bold;vertical-align:top;">cmd_options</td><td style="vertical-align:top;">:</td><td><div>&lt;Values at 0x2cc3a30: {&#x27;verbose&#x27;: False, &#x27;ip&#x27;: &#x27;127.0.0.1&#x27;, &#x27;debuglevel&#x27;: 30, &#x27;with_scheduler&#x27;: False, &#x27;shutdown_timeout&#x27;: 5, &#x27;taskbar&#x27;: False, &#x27;with_coverage&#x27;: False, &#x27;pid_filename&#x27;: &#x27;httpserver.pid&#x27;, &#x27;maxthreads&#x27;: None, &#x27;softcron&#x27;: False, &#x27;server_name&#x27;: &#x27;TIT-JCLIN&#x27;, &#x27;bpython&#x27;: False, &#x27;nogui&#x27;: False, &#x27;port&#x27;: 8000, &#x27;print_errors&#x27;: False, &#x27;extcron&#x27;: False, &#x27;runcron&#x27;: False, &#x27;run_system_tests&#x27;: False, &#x27;test&#x27;: None, &#x27;folder&#x27;: &#x27;E:\\\\users\\\\gitlab\\\\dev\\\\jclin\\\\web2py\\\\web2pyWin_Test&#x27;, &#x27;config&#x27;: &#x27;&#x27;, &#x27;minthreads&#x27;: None, &#x27;shell&#x27;: None, &#x27;run&#x27;: &#x27;&#x27;, &#x27;log_filename&#x27;: &#x27;httpserver.log&#x27;, &#x27;profiler_dir&#x27;: None, &#x27;args&#x27;: [&#x27;&#x27;], &#x27;socket_timeout&#x27;: 5, &#x27;ssl_ca_certificate&#x27;: None, &#x27;scheduler&#x27;: None, &#x27;interfaces&#x27;: None, &#x27;ssl_private_key&#x27;: &#x27;&#x27;, &#x27;gae&#x27;: None, &#x27;password&#x27;: &#x27;******&#x27;, &#x27;request_queue_size&#x27;: 5, &#x27;ssl_certificate&#x27;: &#x27;&#x27;, &#x27;cronjob&#x27;: False, &#x27;numthreads&#x27;: None, &#x27;quiet&#x27;: False, &#x27;import_models&#x27;: False, &#x27;timeout&#x27;: 10, &#x27;plain&#x27;: False, &#x27;nobanner&#x27;: False}&gt;</div></td></tr><tr><td style="font-weight:bold;vertical-align:top;">content_length</td><td style="vertical-align:top;">:</td><td><div>76</div></td></tr><tr><td style="font-weight:bold;vertical-align:top;">content_type</td><td style="vertical-align:top;">:</td><td><div>application/x-www-form-urlencoded; charset=UTF-8</div></td></tr><tr><td style="font-weight:bold;vertical-align:top;">db_sessions</td><td style="vertical-align:top;">:</td><td><div>set([])</div></td></tr><tr><td style="font-weight:bold;vertical-align:top;">debugging</td><td style="vertical-align:top;">:</td><td><div>True</div></td></tr><tr><td style="font-weight:bold;vertical-align:top;">gluon_parent</td><td style="vertical-align:top;">:</td><td><div>E:\\users\\gitlab\\dev\\jclin\\web2py\\web2pyWin_Test</div></td></tr><tr><td style="font-weight:bold;vertical-align:top;">http_accept</td><td style="vertical-align:top;">:</td><td><div>*/*</div></td></tr><tr><td style="font-weight:bold;vertical-align:top;">http_accept_encoding</td><td style="vertical-align:top;">:</td><td><div>gzip, deflate</div></td></tr><tr><td style="font-weight:bold;vertical-align:top;">http_accept_language</td><td style="vertical-align:top;">:</td><td><div>en-US,en;q=0.9</div></td></tr><tr><td style="font-weight:bold;vertical-align:top;">http_connection</td><td style="vertical-align:top;">:</td><td><div>keep-alive</div></td></tr><tr><td style="font-weight:bold;vertical-align:top;">http_content_length</td><td style="vertical-align:top;">:</td><td><div>76</div></td></tr><tr><td style="font-weight:bold;vertical-align:top;">http_content_type</td><td style="vertical-align:top;">:</td><td><div>application/x-www-form-urlencoded; charset=UTF-8</div></td></tr><tr><td style="font-weight:bold;vertical-align:top;">http_cookie</td><td style="vertical-align:top;">:</td><td><div>session_id_admin=10.5.2.38-130d7774-8bb0-4417-84f1-8df00fe257fd; session_id_welcome=10.5.2.38-1d07e11e-ee95-4668-9309-d790f46c49e5; session_id_applicationconfig=10.5.2.38-68cda301-75f7-4723-accc-36309a2adfe7</div></td></tr><tr><td style="font-weight:bold;vertical-align:top;">http_host</td><td style="vertical-align:top;">:</td><td><div>10.5.2.38:9999</div></td></tr><tr><td style="font-weight:bold;vertical-align:top;">http_origin</td><td style="vertical-align:top;">:</td><td><div>http://10.5.2.38:9999</div></td></tr><tr><td style="font-weight:bold;vertical-align:top;">http_referer</td><td style="vertical-align:top;">:</td><td><div>http://10.5.2.38:9999/ApplicationConfig/record/add?dbname=LoanTypeService&amp;tablename=tbcLoanType</div></td></tr><tr><td style="font-weight:bold;vertical-align:top;">http_user_agent</td><td style="vertical-align:top;">:</td><td><div>Mozilla/5.0 (Windows NT 10.0; Win64; x64) AppleWebKit/537.36 (KHTML, like Gecko) Chrome/72.0.3626.109 Safari/537.36</div></td></tr><tr><td style="font-weight:bold;vertical-align:top;">http_x_requested_with</td><td style="vertical-align:top;">:</td><td><div>XMLHttpRequest</div></td></tr><tr><td style="font-weight:bold;vertical-align:top;">is_jython</td><td style="vertical-align:top;">:</td><td><div>False</div></td></tr><tr><td style="font-weight:bold;vertical-align:top;">is_py2</td><td style="vertical-align:top;">:</td><td><div>True</div></td></tr><tr><td style="font-weight:bold;vertical-align:top;">is_pypy</td><td style="vertical-align:top;">:</td><td><div>False</div></td></tr><tr><td style="font-weight:bold;vertical-align:top;">is_source</td><td style="vertical-align:top;">:</td><td><div>False</div></td></tr><tr><td style="font-weight:bold;vertical-align:top;">local_hosts</td><td style="vertical-align:top;">:</td><td><div><table><tr><td><div>fe80::38d9:eee3:ab64:483e%22</div></td></tr><tr><td><div>fe80::c53a:6299:3010:e6a1%6</div></td></tr><tr><td><div>TIT-JCLIN</div></td></tr><tr><td><div>192.168.2.1</div></td></tr><tr><td><div>192.168.119.1</div></td></tr><tr><td><div>TIT-JCLIN.ISLLCNETS.Studentloan.org</div></td></tr><tr><td><div>192.168.99.1</div></td></tr><tr><td><div>fe80::f45b:cf22:ebbc:f274%16</div></td></tr><tr><td><div>::ffff:127.0.0.1</div></td></tr><tr><td><div>::1</div></td></tr><tr><td><div>fe80::a12b:d1c8:9926:ba7d%20</div></td></tr><tr><td><div>172.24.16.1</div></td></tr><tr><td><div>10.5.2.38</div></td></tr><tr><td><div>192.168.29.225</div></td></tr><tr><td><div>fe80::e0ee:56e:391:3e71%28</div></td></tr><tr><td><div>fe80::34fe:9297:96b3:ea7e%8</div></td></tr><tr><td><div>fe80::715d:7979:976f:e9a4%26</div></td></tr><tr><td><div>127.0.0.1</div></td></tr><tr><td><div>192.168.56.1</div></td></tr></table></div></td></tr><tr><td style="font-weight:bold;vertical-align:top;">path_info</td><td style="vertical-align:top;">:</td><td><div>/ApplicationConfig/record/search.json</div></td></tr><tr><td style="font-weight:bold;vertical-align:top;">query_string</td><td style="vertical-align:top;">:</td><td><div>dbname=LoanTypeService&amp;tablename=tbdCreditType</div></td></tr><tr><td style="font-weight:bold;vertical-align:top;">remote_addr</td><td style="vertical-align:top;">:</td><td><div>10.5.2.38</div></td></tr><tr><td style="font-weight:bold;vertical-align:top;">remote_port</td><td style="vertical-align:top;">:</td><td><div>53144</div></td></tr><tr><td style="font-weight:bold;vertical-align:top;">request_method</td><td style="vertical-align:top;">:</td><td><div>POST</div></td></tr><tr><td style="font-weight:bold;vertical-align:top;">request_uri</td><td style="vertical-align:top;">:</td><td><div>/ApplicationConfig/record/search.json?dbname=LoanTypeService&amp;tablename=tbdCreditType</div></td></tr><tr><td style="font-weight:bold;vertical-align:top;">script_name</td><td style="vertical-align:top;">:</td><td><div></div></td></tr><tr><td style="font-weight:bold;vertical-align:top;">server_name</td><td style="vertical-align:top;">:</td><td><div>TIT-JCLIN</div></td></tr><tr><td style="font-weight:bold;vertical-align:top;">server_port</td><td style="vertical-align:top;">:</td><td><div>9999</div></td></tr><tr><td style="font-weight:bold;vertical-align:top;">server_protocol</td><td style="vertical-align:top;">:</td><td><div>HTTP/1.1</div></td></tr><tr><td style="font-weight:bold;vertical-align:top;">server_software</td><td style="vertical-align:top;">:</td><td><div>Rocket 1.2.6</div></td></tr><tr><td style="font-weight:bold;vertical-align:top;">web2py_path</td><td style="vertical-align:top;">:</td><td><div>E:\\users\\gitlab\\dev\\jclin\\web2py\\web2pyWin_Test</div></td></tr><tr><td style="font-weight:bold;vertical-align:top;">web2py_version</td><td style="vertical-align:top;">:</td><td><div>2.17.2-stable+timestamp.2018.10.06.18.54.02</div></td></tr><tr><td style="font-weight:bold;vertical-align:top;">wsgi.errors</td><td style="vertical-align:top;">:</td><td><div>&lt;open file &#x27;&lt;stderr&gt;&#x27;, mode &#x27;w&#x27; at 0x023DD0D0&gt;</div></td></tr><tr><td style="font-weight:bold;vertical-align:top;">wsgi.file_wrapper</td><td style="vertical-align:top;">:</td><td><div>&lt;class wsgiref.util.FileWrapper at 0x02ECCDF8&gt;</div></td></tr><tr><td style="font-weight:bold;vertical-align:top;">wsgi.input</td><td style="vertical-align:top;">:</td><td><div>&lt;socket._fileobject object at 0x0B302B30&gt;</div></td></tr><tr><td style="font-weight:bold;vertical-align:top;">wsgi.multiprocess</td><td style="vertical-align:top;">:</td><td><div>False</div></td></tr><tr><td style="font-weight:bold;vertical-align:top;">wsgi.multithread</td><td style="vertical-align:top;">:</td><td><div>True</div></td></tr><tr><td style="font-weight:bold;vertical-align:top;">wsgi.run_once</td><td style="vertical-align:top;">:</td><td><div>False</div></td></tr><tr><td style="font-weight:bold;vertical-align:top;">wsgi.url_scheme</td><td style="vertical-align:top;">:</td><td><div>http</div></td></tr><tr><td style="font-weight:bold;vertical-align:top;">wsgi.version</td><td style="vertical-align:top;">:</td><td><div><table><tr><td><div>1</div></td></tr><tr><td><div>0</div></td></tr></table></div></td></tr><tr><td style="font-weight:bold;vertical-align:top;">wsgi_errors</td><td style="vertical-align:top;">:</td><td><div>&lt;open file &#x27;&lt;stderr&gt;&#x27;, mode &#x27;w&#x27; at 0x023DD0D0&gt;</div></td></tr><tr><td style="font-weight:bold;vertical-align:top;">wsgi_file_wrapper</td><td style="vertical-align:top;">:</td><td><div>&lt;class wsgiref.util.FileWrapper at 0x02ECCDF8&gt;</div></td></tr><tr><td style="font-weight:bold;vertical-align:top;">wsgi_input</td><td style="vertical-align:top;">:</td><td><div>&lt;socket._fileobject object at 0x0B302B30&gt;</div></td></tr><tr><td style="font-weight:bold;vertical-align:top;">wsgi_multiprocess</td><td style="vertical-align:top;">:</td><td><div>False</div></td></tr><tr><td style="font-weight:bold;vertical-align:top;">wsgi_multithread</td><td style="vertical-align:top;">:</td><td><div>True</div></td></tr><tr><td style="font-weight:bold;vertical-align:top;">wsgi_run_once</td><td style="vertical-align:top;">:</td><td><div>False</div></td></tr><tr><td style="font-weight:bold;vertical-align:top;">wsgi_url_scheme</td><td style="vertical-align:top;">:</td><td><div>http</div></td></tr><tr><td style="font-weight:bold;vertical-align:top;">wsgi_version</td><td style="vertical-align:top;">:</td><td><div><table><tr><td><div>1</div></td></tr><tr><td><div>0</div></td></tr></table></div></td></tr></table></div></td></tr><tr><td style="font-weight:bold;vertical-align:top;">extension</td><td style="vertical-align:top;">:</td><td><div>json</div></td></tr><tr><td style="font-weight:bold;vertical-align:top;">folder</td><td style="vertical-align:top;">:</td><td><div>E:\\users\\gitlab\\dev\\jclin\\web2py\\web2pyWin_Test\\applications\\ApplicationConfig\\</div></td></tr><tr><td style="font-weight:bold;vertical-align:top;">function</td><td style="vertical-align:top;">:</td><td><div>search</div></td></tr><tr><td style="font-weight:bold;vertical-align:top;">global_settings</td><td style="vertical-align:top;">:</td><td><div><table><tr><td style="font-weight:bold;vertical-align:top;">app_folders</td><td style="vertical-align:top;">:</td><td><div>set([&#x27;E:\\\\users\\\\gitlab\\\\dev\\\\jclin\\\\web2py\\\\web2pyWin_Test\\\\applications\\\\welcome\\\\&#x27;, &#x27;E:\\\\users\\\\gitlab\\\\dev\\\\jclin\\\\web2py\\\\web2pyWin_Test\\\\applications\\\\ApplicationConfig\\\\&#x27;, &#x27;E:\\\\users\\\\gitlab\\\\dev\\\\jclin\\\\web2py\\\\web2pyWin_Test\\\\applications\\\\admin\\\\&#x27;])</div></td></tr><tr><td style="font-weight:bold;vertical-align:top;">applications_parent</td><td style="vertical-align:top;">:</td><td><div>E:\\users\\gitlab\\dev\\jclin\\web2py\\web2pyWin_Test</div></td></tr><tr><td style="font-weight:bold;vertical-align:top;">cmd_args</td><td style="vertical-align:top;">:</td><td><div><table></table></div></td></tr><tr><td style="font-weight:bold;vertical-align:top;">cmd_options</td><td style="vertical-align:top;">:</td><td><div>&lt;Values at 0x2cc3a30: {&#x27;verbose&#x27;: False, &#x27;ip&#x27;: &#x27;127.0.0.1&#x27;, &#x27;debuglevel&#x27;: 30, &#x27;with_scheduler&#x27;: False, &#x27;shutdown_timeout&#x27;: 5, &#x27;taskbar&#x27;: False, &#x27;with_coverage&#x27;: False, &#x27;pid_filename&#x27;: &#x27;httpserver.pid&#x27;, &#x27;maxthreads&#x27;: None, &#x27;softcron&#x27;: False, &#x27;server_name&#x27;: &#x27;TIT-JCLIN&#x27;, &#x27;bpython&#x27;: False, &#x27;nogui&#x27;: False, &#x27;port&#x27;: 8000, &#x27;print_errors&#x27;: False, &#x27;extcron&#x27;: False, &#x27;runcron&#x27;: False, &#x27;run_system_tests&#x27;: False, &#x27;test&#x27;: None, &#x27;folder&#x27;: &#x27;E:\\\\users\\\\gitlab\\\\dev\\\\jclin\\\\web2py\\\\web2pyWin_Test&#x27;, &#x27;config&#x27;: &#x27;&#x27;, &#x27;minthreads&#x27;: None, &#x27;shell&#x27;: None, &#x27;run&#x27;: &#x27;&#x27;, &#x27;log_filename&#x27;: &#x27;httpserver.log&#x27;, &#x27;profiler_dir&#x27;: None, &#x27;args&#x27;: [&#x27;&#x27;], &#x27;socket_timeout&#x27;: 5, &#x27;ssl_ca_certificate&#x27;: None, &#x27;scheduler&#x27;: None, &#x27;interfaces&#x27;: None, &#x27;ssl_private_key&#x27;: &#x27;&#x27;, &#x27;gae&#x27;: None, &#x27;password&#x27;: &#x27;******&#x27;, &#x27;request_queue_size&#x27;: 5, &#x27;ssl_certificate&#x27;: &#x27;&#x27;, &#x27;cronjob&#x27;: False, &#x27;numthreads&#x27;: None, &#x27;quiet&#x27;: False, &#x27;import_models&#x27;: False, &#x27;timeout&#x27;: 10, &#x27;plain&#x27;: False, &#x27;nobanner&#x27;: False}&gt;</div></td></tr><tr><td style="font-weight:bold;vertical-align:top;">db_sessions</td><td style="vertical-align:top;">:</td><td><div>set([])</div></td></tr><tr><td style="font-weight:bold;vertical-align:top;">debugging</td><td style="vertical-align:top;">:</td><td><div>True</div></td></tr><tr><td style="font-weight:bold;vertical-align:top;">gluon_parent</td><td style="vertical-align:top;">:</td><td><div>E:\\users\\gitlab\\dev\\jclin\\web2py\\web2pyWin_Test</div></td></tr><tr><td style="font-weight:bold;vertical-align:top;">is_jython</td><td style="vertical-align:top;">:</td><td><div>False</div></td></tr><tr><td style="font-weight:bold;vertical-align:top;">is_py2</td><td style="vertical-align:top;">:</td><td><div>True</div></td></tr><tr><td style="font-weight:bold;vertical-align:top;">is_pypy</td><td style="vertical-align:top;">:</td><td><div>False</div></td></tr><tr><td style="font-weight:bold;vertical-align:top;">is_source</td><td style="vertical-align:top;">:</td><td><div>False</div></td></tr><tr><td style="font-weight:bold;vertical-align:top;">local_hosts</td><td style="vertical-align:top;">:</td><td><div><table><tr><td><div>fe80::38d9:eee3:ab64:483e%22</div></td></tr><tr><td><div>fe80::c53a:6299:3010:e6a1%6</div></td></tr><tr><td><div>TIT-JCLIN</div></td></tr><tr><td><div>192.168.2.1</div></td></tr><tr><td><div>192.168.119.1</div></td></tr><tr><td><div>TIT-JCLIN.ISLLCNETS.Studentloan.org</div></td></tr><tr><td><div>192.168.99.1</div></td></tr><tr><td><div>fe80::f45b:cf22:ebbc:f274%16</div></td></tr><tr><td><div>::ffff:127.0.0.1</div></td></tr><tr><td><div>::1</div></td></tr><tr><td><div>fe80::a12b:d1c8:9926:ba7d%20</div></td></tr><tr><td><div>172.24.16.1</div></td></tr><tr><td><div>10.5.2.38</div></td></tr><tr><td><div>192.168.29.225</div></td></tr><tr><td><div>fe80::e0ee:56e:391:3e71%28</div></td></tr><tr><td><div>fe80::34fe:9297:96b3:ea7e%8</div></td></tr><tr><td><div>fe80::715d:7979:976f:e9a4%26</div></td></tr><tr><td><div>127.0.0.1</div></td></tr><tr><td><div>192.168.56.1</div></td></tr></table></div></td></tr><tr><td style="font-weight:bold;vertical-align:top;">web2py_version</td><td style="vertical-align:top;">:</td><td><div>2.17.2-stable+timestamp.2018.10.06.18.54.02</div></td></tr></table></div></td></tr><tr><td style="font-weight:bold;vertical-align:top;">is_https</td><td style="vertical-align:top;">:</td><td><div>False</div></td></tr><tr><td style="font-weight:bold;vertical-align:top;">is_local</td><td style="vertical-align:top;">:</td><td><div>True</div></td></tr><tr><td style="font-weight:bold;vertical-align:top;">is_restful</td><td style="vertical-align:top;">:</td><td><div>False</div></td></tr><tr><td style="font-weight:bold;vertical-align:top;">is_scheduler</td><td style="vertical-align:top;">:</td><td><div>False</div></td></tr><tr><td style="font-weight:bold;vertical-align:top;">is_shell</td><td style="vertical-align:top;">:</td><td><div>False</div></td></tr><tr><td style="font-weight:bold;vertical-align:top;">method</td><td style="vertical-align:top;">:</td><td><div>POST</div></td></tr><tr><td style="font-weight:bold;vertical-align:top;">now</td><td style="vertical-align:top;">:</td><td><div>datetime.datetime(2019, 2, 22, 15, 44, 7, 681000)</div></td></tr><tr><td style="font-weight:bold;vertical-align:top;">raw_args</td><td style="vertical-align:top;">:</td><td><div></div></td></tr><tr><td style="font-weight:bold;vertical-align:top;">raw_extension</td><td style="vertical-align:top;">:</td><td><div>json</div></td></tr><tr><td style="font-weight:bold;vertical-align:top;">url</td><td style="vertical-align:top;">:</td><td><div>/ApplicationConfig/record/search.json</div></td></tr><tr><td style="font-weight:bold;vertical-align:top;">utcnow</td><td style="vertical-align:top;">:</td><td><div>datetime.datetime(2019, 2, 22, 15, 44, 7, 681000)</div></td></tr><tr><td style="font-weight:bold;vertical-align:top;">wsgi</td><td style="vertical-align:top;">:</td><td><div>&lt;gluon.main.LazyWSGI object at 0x04443510&gt;</div></td></tr></table></div>'
tRp64
sS'frames'
p65
(lp66
(dp67
S'file'
p68
S'E:\\users\\gitlab\\dev\\jclin\\web2py\\web2pyWin_Test\\gluon\\restricted.py'
p69
sS'dump'
p70
(dp71
S'environment'
p72
S"{'A': <class 'gluon.html.A'>, 'ANY_OF': <class 'gluon.validators.ANY_OF'>, 'ASSIGNJS': <function ASSIGNJS>, 'AppConfig': <function AppConfig>, 'Auth': <class 'gluon.tools.Auth'>, 'B': <class 'gluon.html.B'>, 'BEAUTIFY': <class 'gluon.html.BEAUTIFY'>, 'BODY': <class 'gluon.html.BODY'>, 'BR': <class 'gluon.html.BR'>, 'BUTTON': <class 'gluon.html.BUTTON'>, ...}"
p73
sS'ccode'
p74
S'<code object <module> at 0AE0DA88, file "E:\\user...ApplicationConfig\\controllers/record.py", line 2>'
p75
ssS'lnum'
p76
I219
sS'lines'
p77
(dp78
I214
S'    if environment is None:'
p79
sI215
S'        environment = {}'
p80
sI216
S"    environment['__file__'] = layer"
p81
sI217
S"    environment['__name__'] = '__restricted__'"
p82
sI218
S'    try:'
p83
sI219
S'        exec(ccode, environment)'
p84
sI220
S'    except HTTP:'
p85
sI221
S'        raise'
p86
sI222
S'    except RestrictedError:'
p87
sI223
S'        # do not encapsulate (obfuscate) the original RestrictedError'
p88
ssS'call'
p89
S'(ccode=<code object <module> at 0AE0DA88, file "E:\\user...ApplicationConfig\\controllers/record.py", line 2>, environment={\'A\': <class \'gluon.html.A\'>, \'ANY_OF\': <class \'gluon.validators.ANY_OF\'>, \'ASSIGNJS\': <function ASSIGNJS>, \'AppConfig\': <function AppConfig>, \'Auth\': <class \'gluon.tools.Auth\'>, \'B\': <class \'gluon.html.B\'>, \'BEAUTIFY\': <class \'gluon.html.BEAUTIFY\'>, \'BODY\': <class \'gluon.html.BODY\'>, \'BR\': <class \'gluon.html.BR\'>, \'BUTTON\': <class \'gluon.html.BUTTON\'>, ...}, layer=r\'E:\\users\\gitlab\\dev\\jclin\\web2py\\web2pyWin_Test\\applications\\ApplicationConfig\\controllers/record.py\', scode=<code object <module> at 0AE0DA88, file "E:\\user...ApplicationConfig\\controllers/record.py", line 2>)'
p90
sS'func'
p91
S'restricted'
p92
sa(dp93
g68
S'E:\\users\\gitlab\\dev\\jclin\\web2py\\web2pyWin_Test\\applications\\ApplicationConfig\\controllers\\record.py'
p94
sg70
(dp95
sg76
I199
sg77
(dp96
I192
S"    recordid = request.get_vars.get('recordid', None)"
p97
sI193
S'    record = traversalValidators.traversalValidators.getRecordById(database, tablename, recordid)'
p98
sI194
S'    if record == False:'
p99
sI195
S"        raise HTTP(400, 'Invalid recordid')"
p100
sI196
S'    return record'
p101
sI197
S'#END def get'
p102
sI188
S'    database = DBREG[dbname]'
p103
sI189
S"    tablename = request.get_vars.get('tablename', None)"
p104
sI190
S'    if not traversalValidators.traversalValidators.validateTableName(database, tablename):'
p105
sI191
S'        raise HTTP(400, "Invalid tablename")'
p106
ssg89
S'()'
p107
sg91
S'<module>'
p108
sa(dp109
g68
S'E:\\users\\gitlab\\dev\\jclin\\web2py\\web2pyWin_Test\\gluon\\globals.py'
p110
sg70
(dp111
S'self'
p112
S'undefined'
p113
sS'f'
S'<function search>'
p114
ssg76
I421
sg77
(dp115
I416
S"        self.flash = ''            # used by the default view layout"
p116
sI417
S'        self.meta = Storage()      # used by web2py_ajax.html'
p117
sI418
S'        self.menu = []             # used by the default view layout'
p118
sI419
S'        self.files = []            # used by web2py_ajax.html'
p119
sI420
S'        self._vars = None'
p120
sI421
S'        self._caller = lambda f: f()'
p121
sI422
S'        self._view_environment = None'
p122
sI423
S'        self._custom_commit = None'
p123
sI424
S'        self._custom_rollback = None'
p124
sI425
S"        self.generic_patterns = ['*']"
p125
ssg89
S'(f=<function search>)'
p126
sg91
S'<lambda>'
p127
sa(dp128
g68
S'E:\\users\\gitlab\\dev\\jclin\\web2py\\web2pyWin_Test\\applications\\ApplicationConfig\\controllers\\record.py'
p129
sg70
(dp130
S'args'
p131
S"['a', '%a%']"
p132
sS'database'
p133
S'<DAL uri="mssql4:******@localhost/LoanTypeService">'
p134
sS'builtinTrue'
p135
S'True'
p136
sS'database.executesql'
p137
S'<bound method DAL.executesql of <DAL uri="mssql4:******@localhost/LoanTypeService">>'
p138
sS'as_dict'
p139
g113
sS'answers'
p140
g113
sS'builtintuple'
p141
S"<type 'tuple'>"
p142
sS'query'
p143
S"u'WITH agg(id,[weight]) AS (SELECT CreditTypeId,... agg\\n                GROUP BY id \\n            '"
p144
ssg76
I165
sg77
(dp145
I160
S'                    id,'
p146
sI161
S'                    SUM([weight]) AS [weight]'
p147
sI162
S'                FROM agg'
p148
sI163
S'                GROUP BY id'
p149
sI164
S"            '''"
p150
sI165
S'            answers = database.executesql(query, tuple(args), as_dict = True)'
p151
sI166
S'            count = 0'
p152
sI167
S'            for answer in answers:'
p153
sI168
S'                if count >= len(results):'
p154
sI169
S"                    results.append(dict(id = answer['id'], weight = 0))"
p155
ssg89
S'()'
p156
sg91
S'search'
p157
sa(dp158
g68
S'E:\\users\\gitlab\\dev\\jclin\\web2py\\web2pyWin_Test\\gluon\\packages\\dal\\pydal\\base.py'
p159
sg70
(dp160
S'query'
p161
S"u'WITH agg(id,[weight]) AS (SELECT CreditTypeId,... agg\\n                GROUP BY id \\n            '"
p162
sS'adapter'
p163
S'<pydal.adapters.mssql.MSSQL4 object>'
p164
sS'placeholders'
p165
S"('a', '%a%')"
p166
sS'adapter.execute'
p167
S'<bound method MSSQL4.wrap of <pydal.adapters.mssql.MSSQL4 object>>'
p168
ssg76
I770
sg77
(dp169
I768
S'        adapter = self._adapter'
p170
sI769
S'        if placeholders:'
p171
sI770
S'            adapter.execute(query, placeholders)'
p172
sI771
S'        else:'
p173
sI772
S'            adapter.execute(query)'
p174
sI773
S'        if as_dict or as_ordered_dict:'
p175
sI774
S"            if not hasattr(adapter.cursor,'description'):"
p176
sI765
S'        same order as the fields in the results cursor returned from the DB.'
p177
sI766
S''
sI767
S'        """'
p178
ssg89
S'(self=<DAL uri="mssql4:******@localhost/LoanTypeService">, query=u\'WITH agg(id,[weight]) AS (SELECT CreditTypeId,... agg\\n                GROUP BY id \\n            \', placeholders=(\'a\', \'%a%\'), as_dict=True, fields=None, colnames=None, as_ordered_dict=False)'
p179
sg91
S'executesql'
p180
sa(dp181
g68
S'E:\\users\\gitlab\\dev\\jclin\\web2py\\web2pyWin_Test\\gluon\\packages\\dal\\pydal\\adapters\\__init__.py'
p182
sg70
(dp183
S'kwargs'
p184
g21
sS'args'
p185
S"(<pydal.adapters.mssql.MSSQL4 object>, u'WITH agg(id,[weight]) AS (SELECT CreditTypeId,... agg\\n                GROUP BY id \\n            ', ('a', '%a%'))"
p186
sS'f'
S'<function execute>'
p187
ssg76
I67
sg77
(dp188
I64
S'            if len(args) > 1:'
p189
sI65
S'                raise ValueError(args[1])'
p190
sI66
S"            raise RuntimeError('no connection available')"
p191
sI67
S'        return f(*args, **kwargs)'
p192
sI68
S'    return wrap'
p193
sI69
S''
sI70
S''
sI71
S'from .base import SQLAdapter, NoSQLAdapter'
p194
sI62
S'    def wrap(*args, **kwargs):'
p195
sI63
S'        if not args[0].connection:'
p196
ssg89
S"(*args=(<pydal.adapters.mssql.MSSQL4 object>, u'WITH agg(id,[weight]) AS (SELECT CreditTypeId,... agg\\n                GROUP BY id \\n            ', ('a', '%a%')), **kwargs={})"
p197
sg91
S'wrap'
p198
sa(dp199
g68
S'E:\\users\\gitlab\\dev\\jclin\\web2py\\web2pyWin_Test\\gluon\\packages\\dal\\pydal\\adapters\\base.py'
p200
sg70
(dp201
S'rv'
p202
g113
sS'self'
p203
S'<pydal.adapters.mssql.MSSQL4 object>'
p204
sS'args'
p205
S"(u'WITH agg(id,[weight]) AS (SELECT CreditTypeId,... agg\\n                GROUP BY id \\n            ', ('a', '%a%'))"
p206
sS'self.cursor'
p207
S'<pyodbc.Cursor object>'
p208
sS'command'
p209
S"u'WITH agg(id,[weight]) AS (SELECT CreditTypeId,... agg\\n                GROUP BY id \\n            '"
p210
sS'self.cursor.execute'
p211
S'<built-in method execute of pyodbc.Cursor object>'
p212
sS'kwargs'
p213
g21
ssg76
I413
sg77
(dp214
I416
S'        return rv'
p215
sI417
S''
sI408
S'    def execute(self, *args, **kwargs):'
p216
sI409
S'        command = self.filter_sql_command(args[0])'
p217
sI410
S'        handlers = self._build_handlers_for_execution()'
p218
sI411
S'        for handler in handlers:'
p219
sI412
S'            handler.before_execute(command)'
p220
sI413
S'        rv = self.cursor.execute(command, *args[1:], **kwargs)'
p221
sI414
S'        for handler in handlers:'
p222
sI415
S'            handler.after_execute(command)'
p223
ssg89
S"(self=<pydal.adapters.mssql.MSSQL4 object>, *args=(u'WITH agg(id,[weight]) AS (SELECT CreditTypeId,... agg\\n                GROUP BY id \\n            ', ('a', '%a%')), **kwargs={})"
p224
sg91
S'execute'
p225
sasS'pyver'
p226
S'Python 2.7.9: E:\\users\\gitlab\\dev\\jclin\\web2py\\web2pyWin_Test\\web2py.exe (prefix: )'
p227
sS'session'
p228
g63
(S's\x1a\x00\x00\x00<div><table></table></div>'
tRp229
sS'etype'
p230
S"<class 'pyodbc.DataError'>"
p231
sS'date'
p232
S'Fri Feb 22 15:44:07 2019'
p233
sS'response'
p234
g63
(S's\xcf\x1d\x00\x00<div><table><tr><td style="font-weight:bold;vertical-align:top;">body</td><td style="vertical-align:top;">:</td><td><div>&lt;cStringIO.StringO object at 0x0467DC80&gt;</div></td></tr><tr><td style="font-weight:bold;vertical-align:top;">cookies</td><td style="vertical-align:top;">:</td><td><div><table><tr><td style="font-weight:bold;vertical-align:top;">session_id_applicationconfig</td><td style="vertical-align:top;">:</td><td><div>10.5.2.38-68cda301-75f7-4723-accc-36309a2adfe7<table><tr><td style="font-weight:bold;vertical-align:top;">comment</td><td style="vertical-align:top;">:</td><td><div></div></td></tr><tr><td style="font-weight:bold;vertical-align:top;">domain</td><td style="vertical-align:top;">:</td><td><div></div></td></tr><tr><td style="font-weight:bold;vertical-align:top;">expires</td><td style="vertical-align:top;">:</td><td><div></div></td></tr><tr><td style="font-weight:bold;vertical-align:top;">httponly</td><td style="vertical-align:top;">:</td><td><div></div></td></tr><tr><td style="font-weight:bold;vertical-align:top;">max-age</td><td style="vertical-align:top;">:</td><td><div></div></td></tr><tr><td style="font-weight:bold;vertical-align:top;">path</td><td style="vertical-align:top;">:</td><td><div>/</div></td></tr><tr><td style="font-weight:bold;vertical-align:top;">samesite</td><td style="vertical-align:top;">:</td><td><div></div></td></tr><tr><td style="font-weight:bold;vertical-align:top;">secure</td><td style="vertical-align:top;">:</td><td><div></div></td></tr><tr><td style="font-weight:bold;vertical-align:top;">version</td><td style="vertical-align:top;">:</td><td><div></div></td></tr></table></div></td></tr></table></div></td></tr><tr><td style="font-weight:bold;vertical-align:top;">delimiters</td><td style="vertical-align:top;">:</td><td><div><table><tr><td><div>{{</div></td></tr><tr><td><div>}}</div></td></tr></table></div></td></tr><tr><td style="font-weight:bold;vertical-align:top;">files</td><td style="vertical-align:top;">:</td><td><div><table></table></div></td></tr><tr><td style="font-weight:bold;vertical-align:top;">flash</td><td style="vertical-align:top;">:</td><td><div>Success!</div></td></tr><tr><td style="font-weight:bold;vertical-align:top;">form_label_separator</td><td style="vertical-align:top;">:</td><td><div></div></td></tr><tr><td style="font-weight:bold;vertical-align:top;">formstyle</td><td style="vertical-align:top;">:</td><td><div>bootstrap4_inline</div></td></tr><tr><td style="font-weight:bold;vertical-align:top;">generic_patterns</td><td style="vertical-align:top;">:</td><td><div><table><tr><td><div>*</div></td></tr></table></div></td></tr><tr><td style="font-weight:bold;vertical-align:top;">headers</td><td style="vertical-align:top;">:</td><td><div><table><tr><td style="font-weight:bold;vertical-align:top;">X-Powered-By</td><td style="vertical-align:top;">:</td><td><div>web2py</div></td></tr></table></div></td></tr><tr><td style="font-weight:bold;vertical-align:top;">menu</td><td style="vertical-align:top;">:</td><td><div><table><tr><td><div><table><tr><td><div>Databases</div></td></tr><tr><td><div>False</div></td></tr><tr><td><div>/ApplicationConfig/database/index.json</div></td></tr><tr><td><div><table></table></div></td></tr></table></div></td></tr><tr><td><div><table><tr><td><div>Submission</div></td></tr><tr><td><div>False</div></td></tr><tr><td><div>/ApplicationConfig/database/index.json</div></td></tr><tr><td><div><table></table></div></td></tr></table></div></td></tr><tr><td><div><table><tr><td><div>Upload</div></td></tr><tr><td><div>False</div></td></tr><tr><td><div>/ApplicationConfig/database/index.json</div></td></tr><tr><td><div><table></table></div></td></tr></table></div></td></tr></table></div></td></tr><tr><td style="font-weight:bold;vertical-align:top;">meta</td><td style="vertical-align:top;">:</td><td><div><table><tr><td style="font-weight:bold;vertical-align:top;">author</td><td style="vertical-align:top;">:</td><td><div>Your Name &lt;you@example.com&gt;</div></td></tr><tr><td style="font-weight:bold;vertical-align:top;">description</td><td style="vertical-align:top;">:</td><td><div>a cool new app</div></td></tr><tr><td style="font-weight:bold;vertical-align:top;">generator</td><td style="vertical-align:top;">:</td><td><div>Web2py Web Framework</div></td></tr><tr><td style="font-weight:bold;vertical-align:top;">keywords</td><td style="vertical-align:top;">:</td><td><div><table><tr><td><div>web2py</div></td></tr><tr><td><div>python</div></td></tr><tr><td><div>framework</div></td></tr></table></div></td></tr></table></div></td></tr><tr><td style="font-weight:bold;vertical-align:top;">models_to_run</td><td style="vertical-align:top;">:</td><td><div><table><tr><td><div>^\\w+\\.py$</div></td></tr><tr><td><div>^record/\\w+\\.py$</div></td></tr><tr><td><div>^record/search/\\w+\\.py$</div></td></tr></table></div></td></tr><tr><td style="font-weight:bold;vertical-align:top;">postprocessing</td><td style="vertical-align:top;">:</td><td><div><table></table></div></td></tr><tr><td style="font-weight:bold;vertical-align:top;">session_client</td><td style="vertical-align:top;">:</td><td><div>10.5.2.38</div></td></tr><tr><td style="font-weight:bold;vertical-align:top;">session_cookie_compression_level</td><td style="vertical-align:top;">:</td><td><div>None</div></td></tr><tr><td style="font-weight:bold;vertical-align:top;">session_cookie_expires</td><td style="vertical-align:top;">:</td><td><div>None</div></td></tr><tr><td style="font-weight:bold;vertical-align:top;">session_data_name</td><td style="vertical-align:top;">:</td><td><div>session_data_applicationconfig</div></td></tr><tr><td style="font-weight:bold;vertical-align:top;">session_file</td><td style="vertical-align:top;">:</td><td><div>&lt;open file &#x27;E:\\\\users\\\\gitlab\\\\dev\\\\jclin\\\\web2py\\\\web2pyWin_Test\\\\applications\\\\ApplicationConfig\\\\sessions\\\\18c\\\\1ed\\\\10.5.2.38-68cda301-75f7-4723-accc-36309a2adfe7&#x27;, mode &#x27;rb+&#x27; at 0x048A4C28&gt;</div></td></tr><tr><td style="font-weight:bold;vertical-align:top;">session_filename</td><td style="vertical-align:top;">:</td><td><div>E:\\users\\gitlab\\dev\\jclin\\web2py\\web2pyWin_Test\\applications\\ApplicationConfig\\sessions\\10.5.2.38-68cda301-75f7-4723-accc-36309a2adfe7</div></td></tr><tr><td style="font-weight:bold;vertical-align:top;">session_hash</td><td style="vertical-align:top;">:</td><td><div>50615a6b6efefd4c08cf70219e2cdab0</div></td></tr><tr><td style="font-weight:bold;vertical-align:top;">session_id</td><td style="vertical-align:top;">:</td><td><div>10.5.2.38-68cda301-75f7-4723-accc-36309a2adfe7</div></td></tr><tr><td style="font-weight:bold;vertical-align:top;">session_id_name</td><td style="vertical-align:top;">:</td><td><div>session_id_applicationconfig</div></td></tr><tr><td style="font-weight:bold;vertical-align:top;">session_locked</td><td style="vertical-align:top;">:</td><td><div>True</div></td></tr><tr><td style="font-weight:bold;vertical-align:top;">session_masterapp</td><td style="vertical-align:top;">:</td><td><div>ApplicationConfig</div></td></tr><tr><td style="font-weight:bold;vertical-align:top;">session_new</td><td style="vertical-align:top;">:</td><td><div>False</div></td></tr><tr><td style="font-weight:bold;vertical-align:top;">session_storage_type</td><td style="vertical-align:top;">:</td><td><div>file</div></td></tr><tr><td style="font-weight:bold;vertical-align:top;">status</td><td style="vertical-align:top;">:</td><td><div>200</div></td></tr><tr><td style="font-weight:bold;vertical-align:top;">view</td><td style="vertical-align:top;">:</td><td><div>record/search.json</div></td></tr></table></div>'
tRp235
sS'locals'
p236
(dp237
S'handlers'
p238
S'[<pydal.helpers.classes.TimingHandler object>]'
p239
sS'self'
p240
S'<pydal.adapters.mssql.MSSQL4 object>'
p241
sg48
S"(u'WITH agg(id,[weight]) AS (SELECT CreditTypeId,... agg\\n                GROUP BY id \\n            ', ('a', '%a%'))"
p242
sS'handler'
p243
S'<pydal.helpers.classes.TimingHandler object>'
p244
sS'command'
p245
S"u'WITH agg(id,[weight]) AS (SELECT CreditTypeId,... agg\\n                GROUP BY id \\n            '"
p246
sS'kwargs'
p247
g21
sssS'traceback'
p248
S'Traceback (most recent call last):\n  File "E:\\users\\gitlab\\dev\\jclin\\web2py\\web2pyWin_Test\\gluon\\restricted.py", line 219, in restricted\n    exec(ccode, environment)\n  File "E:\\users\\gitlab\\dev\\jclin\\web2py\\web2pyWin_Test\\applications\\ApplicationConfig\\controllers/record.py", line 199, in <module>\n  File "E:\\users\\gitlab\\dev\\jclin\\web2py\\web2pyWin_Test\\gluon\\globals.py", line 421, in <lambda>\n    self._caller = lambda f: f()\n  File "E:\\users\\gitlab\\dev\\jclin\\web2py\\web2pyWin_Test\\applications\\ApplicationConfig\\controllers/record.py", line 165, in search\n    answers = database.executesql(query, tuple(args), as_dict = True)\n  File "E:\\users\\gitlab\\dev\\jclin\\web2py\\web2pyWin_Test\\gluon\\packages\\dal\\pydal\\base.py", line 770, in executesql\n    adapter.execute(query, placeholders)\n  File "E:\\users\\gitlab\\dev\\jclin\\web2py\\web2pyWin_Test\\gluon\\packages\\dal\\pydal\\adapters\\__init__.py", line 67, in wrap\n    return f(*args, **kwargs)\n  File "E:\\users\\gitlab\\dev\\jclin\\web2py\\web2pyWin_Test\\gluon\\packages\\dal\\pydal\\adapters\\base.py", line 413, in execute\n    rv = self.cursor.execute(command, *args[1:], **kwargs)\nDataError: (\'22018\', "[22018] [Microsoft][ODBC SQL Server Driver][SQL Server]Conversion failed when converting the varchar value \'a\' to data type tinyint. (245) (SQLExecDirectW)")\n'
p249
s.